; Function Attrs: null_pointer_is_valid sspstrong uwtable
define internal noundef zeroext i1 @dbs_etherwatch_seek_read(ptr noundef readonly captures(none) %0, i64 noundef %1, ptr noundef %2, ptr noundef %3, ptr noundef %4) #0 {
  %6 = getelementptr inbounds nuw i8, ptr %0, i64 8
  %7 = load ptr, ptr %6, align 8
  %8 = add i64 %1, -1
  %9 = tail call i64 @file_seek(ptr noundef %7, i64 noundef %8, i32 noundef 0, ptr noundef %3)
  %10 = icmp eq i64 %9, -1
  br i1 %10, label %14, label %11

11:                                               ; preds = %5
  %12 = load ptr, ptr %6, align 8
  %13 = tail call fastcc zeroext i1 @parse_dbs_etherwatch_packet(ptr noundef %12, ptr noundef %2, ptr noundef %3, ptr noundef %4)
  br label %14

14:                                               ; preds = %5, %11
  %.0 = phi i1 [ %13, %11 ], [ false, %5 ]
  ret i1 %.0
}